; Function Attrs: mustprogress nofree norecurse nosync nounwind willreturn memory(read, inaccessiblemem: none) uwtable
define dso_local noundef ptr @_ZNK24btCollisionWorldImporter19getRigidBodyByIndexEi(ptr nocapture noundef nonnull readonly align 8 dereferenceable(1336) %this, i32 noundef %index) local_unnamed_addr #13 align 2 {
entry:
  %m_data.i = getelementptr inbounds i8, ptr %this, i64 72
  %0 = load ptr, ptr %m_data.i, align 8
  %idxprom.i = sext i32 %index to i64
  %arrayidx.i = getelementptr inbounds ptr, ptr %0, i64 %idxprom.i
  %1 = load ptr, ptr %arrayidx.i, align 8
  ret ptr %1
}